target datalayout = "e-m:e-p270:32:32-p271:32:32-p272:64:64-i64:64-i128:128-f80:128-n8:16:32:64-S128"
target triple = "x86_64-pc-linux-gnu"

%class.symbol = type { ptr }
%class.rational = type { %class.mpq }
%class.mpq = type { %class.mpz, %class.mpz }
%class.mpz = type { i32, i8, ptr }
%struct.func_decl_info = type <{ %class.decl_info.base, i16, [5 x i8] }>
%class.decl_info.base = type <{ i32, i32, %class.vector.39, i8 }>
%class.vector.39 = type { ptr }
%class.ast_manager = type { %class.reslimit, %class.small_object_allocator, %class.family_manager, %class.parray_manager, %class.dependency_manager, %class.parray_manager.10, %class.ptr_vector.13, i32, i8, %class.ast_table, %class.obj_map, %class.id_gen, %class.id_gen, ptr, ptr, ptr, ptr, ptr, i32, i8, [3 x i8], %class.u_map, ptr, i8, i8, ptr, %class.symbol, %class.obj_map.21, ptr }
%class.reslimit = type { %"struct.std::atomic", i8, i64, i64, %class.svector, %class.ptr_vector }
%"struct.std::atomic" = type { %"struct.std::__atomic_base" }
%"struct.std::__atomic_base" = type { i32 }
%class.svector = type { %class.vector }
%class.vector = type { ptr }
%class.ptr_vector = type { %class.vector.0 }
%class.vector.0 = type { ptr }
%class.small_object_allocator = type { [32 x ptr], [32 x ptr], i64 }
%class.family_manager = type { i32, %class.symbol_table, %class.svector.4 }
%class.symbol_table = type { %class.core_hashtable, %class.vector.1, %class.svector.2 }
%class.core_hashtable = type <{ ptr, i32, i32, i32, [4 x i8] }>
%class.vector.1 = type { ptr }
%class.svector.2 = type { %class.vector.3 }
%class.vector.3 = type { ptr }
%class.svector.4 = type { %class.vector.5 }
%class.vector.5 = type { ptr }
%class.parray_manager = type { ptr, ptr, %class.ptr_vector.6, %class.ptr_vector.6 }
%class.ptr_vector.6 = type { %class.vector.7 }
%class.vector.7 = type { ptr }
%class.dependency_manager = type { ptr, ptr, %class.ptr_vector.8 }
%class.ptr_vector.8 = type { %class.vector.9 }
%class.vector.9 = type { ptr }
%class.parray_manager.10 = type { ptr, ptr, %class.ptr_vector.11, %class.ptr_vector.11 }
%class.ptr_vector.11 = type { %class.vector.12 }
%class.vector.12 = type { ptr }
%class.ptr_vector.13 = type { %class.vector.14 }
%class.vector.14 = type { ptr }
%class.ast_table = type { %class.chashtable }
%class.chashtable = type { ptr, i32, i32, i32, i32, i32, i32, i32, ptr, ptr, ptr }
%class.obj_map = type { %class.core_hashtable.15 }
%class.core_hashtable.15 = type <{ ptr, i32, i32, i32, [4 x i8] }>
%class.id_gen = type { i32, %class.svector.17 }
%class.svector.17 = type { %class.vector.18 }
%class.vector.18 = type { ptr }
%class.u_map = type { %class.map }
%class.map = type { %class.table2map }
%class.table2map = type { %class.core_hashtable.19 }
%class.core_hashtable.19 = type <{ ptr, i32, i32, i32, [4 x i8] }>
%class.obj_map.21 = type { %class.core_hashtable.22 }
%class.core_hashtable.22 = type <{ ptr, i32, i32, i32, [4 x i8] }>
%class.decl_info = type <{ i32, i32, %class.vector.39, i8, [7 x i8] }>
%class.pb_util = type { ptr, i32, %class.vector.42, %class.vector.39, %class.rational }
%class.vector.42 = type { ptr }

@.str.14 = private unnamed_addr constant [3 x i8] c"pb\00", align 1

; Function Attrs: mustprogress nounwind uwtable
define linkonce_odr hidden noundef zeroext i1 @_ZNK14func_decl_info9is_skolemEv(ptr noundef nonnull align 8 dereferenceable(19) %0) #7 comdat align 2 {
  %2 = alloca ptr, align 8
  store ptr %0, ptr %2, align 8, !tbaa !100
  %3 = load ptr, ptr %2, align 8
  %4 = getelementptr inbounds nuw %struct.func_decl_info, ptr %3, i32 0, i32 1
  %5 = load i16, ptr %4, align 1
  %6 = lshr i16 %5, 8
  %7 = and i16 %6, 1
  %8 = trunc i16 %7 to i1
  ret i1 %8
}

; Function Attrs: mustprogress nounwind uwtable
define linkonce_odr hidden noundef zeroext i1 @_ZNK14func_decl_info13is_idempotentEv(ptr noundef nonnull align 8 dereferenceable(19) %0) #7 comdat align 2 {
  %2 = alloca ptr, align 8
  store ptr %0, ptr %2, align 8, !tbaa !100
  %3 = load ptr, ptr %2, align 8
  %4 = getelementptr inbounds nuw %struct.func_decl_info, ptr %3, i32 0, i32 1
  %5 = load i16, ptr %4, align 1
  %6 = lshr i16 %5, 7
  %7 = and i16 %6, 1
  %8 = trunc i16 %7 to i1
  ret i1 %8
}

; Function Attrs: mustprogress nounwind uwtable
define linkonce_odr hidden noundef zeroext i1 @_ZNK14func_decl_info12is_injectiveEv(ptr noundef nonnull align 8 dereferenceable(19) %0) #7 comdat align 2 {
  %2 = alloca ptr, align 8
  store ptr %0, ptr %2, align 8, !tbaa !100
  %3 = load ptr, ptr %2, align 8
  %4 = getelementptr inbounds nuw %struct.func_decl_info, ptr %3, i32 0, i32 1
  %5 = load i16, ptr %4, align 1
  %6 = lshr i16 %5, 6
  %7 = and i16 %6, 1
  %8 = trunc i16 %7 to i1
  ret i1 %8
}

; Function Attrs: mustprogress nounwind uwtable
define linkonce_odr hidden noundef zeroext i1 @_ZNK14func_decl_info11is_pairwiseEv(ptr noundef nonnull align 8 dereferenceable(19) %0) #7 comdat align 2 {
  %2 = alloca ptr, align 8
  store ptr %0, ptr %2, align 8, !tbaa !100
  %3 = load ptr, ptr %2, align 8
  %4 = getelementptr inbounds nuw %struct.func_decl_info, ptr %3, i32 0, i32 1
  %5 = load i16, ptr %4, align 1
  %6 = lshr i16 %5, 5
  %7 = and i16 %6, 1
  %8 = trunc i16 %7 to i1
  ret i1 %8
}

; Function Attrs: mustprogress nounwind uwtable
define linkonce_odr hidden noundef zeroext i1 @_ZNK14func_decl_info12is_chainableEv(ptr noundef nonnull align 8 dereferenceable(19) %0) #7 comdat align 2 {
  %2 = alloca ptr, align 8
  store ptr %0, ptr %2, align 8, !tbaa !100
  %3 = load ptr, ptr %2, align 8
  %4 = getelementptr inbounds nuw %struct.func_decl_info, ptr %3, i32 0, i32 1
  %5 = load i16, ptr %4, align 1
  %6 = lshr i16 %5, 4
  %7 = and i16 %6, 1
  %8 = trunc i16 %7 to i1
  ret i1 %8
}

; Function Attrs: mustprogress nounwind uwtable
define linkonce_odr hidden noundef zeroext i1 @_ZNK14func_decl_info14is_commutativeEv(ptr noundef nonnull align 8 dereferenceable(19) %0) #7 comdat align 2 {
  %2 = alloca ptr, align 8
  store ptr %0, ptr %2, align 8, !tbaa !100
  %3 = load ptr, ptr %2, align 8
  %4 = getelementptr inbounds nuw %struct.func_decl_info, ptr %3, i32 0, i32 1
  %5 = load i16, ptr %4, align 1
  %6 = lshr i16 %5, 3
  %7 = and i16 %6, 1
  %8 = trunc i16 %7 to i1
  ret i1 %8
}

; Function Attrs: mustprogress nounwind uwtable
define linkonce_odr hidden noundef zeroext i1 @_ZNK14func_decl_info20is_right_associativeEv(ptr noundef nonnull align 8 dereferenceable(19) %0) #7 comdat align 2 {
  %2 = alloca ptr, align 8
  store ptr %0, ptr %2, align 8, !tbaa !100
  %3 = load ptr, ptr %2, align 8
  %4 = getelementptr inbounds nuw %struct.func_decl_info, ptr %3, i32 0, i32 1
  %5 = load i16, ptr %4, align 1
  %6 = lshr i16 %5, 1
  %7 = and i16 %6, 1
  %8 = trunc i16 %7 to i1
  ret i1 %8
}

; Function Attrs: mustprogress nounwind uwtable
define linkonce_odr hidden noundef zeroext i1 @_ZNK14func_decl_info19is_left_associativeEv(ptr noundef nonnull align 8 dereferenceable(19) %0) #7 comdat align 2 {
  %2 = alloca ptr, align 8
  store ptr %0, ptr %2, align 8, !tbaa !100
  %3 = load ptr, ptr %2, align 8
  %4 = getelementptr inbounds nuw %struct.func_decl_info, ptr %3, i32 0, i32 1
  %5 = load i16, ptr %4, align 1
  %6 = and i16 %5, 1
  %7 = trunc i16 %6 to i1
  ret i1 %7
}

; Function Attrs: mustprogress nounwind uwtable
define linkonce_odr hidden noundef i32 @_ZNK9decl_info13get_family_idEv(ptr noundef nonnull align 8 dereferenceable(17) %0) #7 comdat align 2 {
  %2 = alloca ptr, align 8
  store ptr %0, ptr %2, align 8, !tbaa !102
  %3 = load ptr, ptr %2, align 8
  %4 = getelementptr inbounds nuw %class.decl_info, ptr %3, i32 0, i32 0
  %5 = load i32, ptr %4, align 8, !tbaa !189
  ret i32 %5
}

; Function Attrs: mustprogress uwtable
define linkonce_odr hidden noundef zeroext i1 @_ZNK14func_decl_info7is_nullEv(ptr noundef nonnull align 8 dereferenceable(19) %0) #4 comdat align 2 {
  %2 = alloca ptr, align 8
  store ptr %0, ptr %2, align 8, !tbaa !100
  %3 = load ptr, ptr %2, align 8
  %4 = call noundef i32 @_ZNK9decl_info13get_family_idEv(ptr noundef nonnull align 8 dereferenceable(17) %3)
  %5 = icmp eq i32 %4, -1
  br i1 %5, label %6, label %23

6:                                                ; preds = %1
  %7 = call noundef zeroext i1 @_ZNK14func_decl_info19is_left_associativeEv(ptr noundef nonnull align 8 dereferenceable(19) %3)
  br i1 %7, label %23, label %8

8:                                                ; preds = %6
  %9 = call noundef zeroext i1 @_ZNK14func_decl_info20is_right_associativeEv(ptr noundef nonnull align 8 dereferenceable(19) %3)
  br i1 %9, label %23, label %10

10:                                               ; preds = %8
  %11 = call noundef zeroext i1 @_ZNK14func_decl_info14is_commutativeEv(ptr noundef nonnull align 8 dereferenceable(19) %3)
  br i1 %11, label %23, label %12

12:                                               ; preds = %10
  %13 = call noundef zeroext i1 @_ZNK14func_decl_info12is_chainableEv(ptr noundef nonnull align 8 dereferenceable(19) %3)
  br i1 %13, label %23, label %14

14:                                               ; preds = %12
  %15 = call noundef zeroext i1 @_ZNK14func_decl_info11is_pairwiseEv(ptr noundef nonnull align 8 dereferenceable(19) %3)
  br i1 %15, label %23, label %16

16:                                               ; preds = %14
  %17 = call noundef zeroext i1 @_ZNK14func_decl_info12is_injectiveEv(ptr noundef nonnull align 8 dereferenceable(19) %3)
  br i1 %17, label %23, label %18

18:                                               ; preds = %16
  %19 = call noundef zeroext i1 @_ZNK14func_decl_info13is_idempotentEv(ptr noundef nonnull align 8 dereferenceable(19) %3)
  br i1 %19, label %23, label %20

20:                                               ; preds = %18
  %21 = call noundef zeroext i1 @_ZNK14func_decl_info9is_skolemEv(ptr noundef nonnull align 8 dereferenceable(19) %3)
  %22 = xor i1 %21, true
  br label %23

23:                                               ; preds = %20, %18, %16, %14, %12, %10, %8, %6, %1
  %24 = phi i1 [ false, %18 ], [ false, %16 ], [ false, %14 ], [ false, %12 ], [ false, %10 ], [ false, %8 ], [ false, %6 ], [ false, %1 ], [ %22, %20 ]
  ret i1 %24
}

; Function Attrs: mustprogress uwtable
define linkonce_odr hidden noundef ptr @_ZN11ast_manager8mk_constEP9func_decl(ptr noundef nonnull align 8 dereferenceable(976) %0, ptr noundef %1) #4 comdat align 2 {
  %3 = alloca ptr, align 8
  %4 = alloca ptr, align 8
  store ptr %0, ptr %3, align 8, !tbaa !25
  store ptr %1, ptr %4, align 8, !tbaa !159
  %5 = load ptr, ptr %3, align 8
  %6 = load ptr, ptr %4, align 8, !tbaa !159
  %7 = call noundef ptr @_ZN11ast_manager6mk_appEP9func_decljPKP4expr(ptr noundef nonnull align 8 dereferenceable(976) %5, ptr noundef %6, i32 noundef 0, ptr noundef null)
  ret ptr %7
}

; Function Attrs: mustprogress uwtable
define linkonce_odr hidden noundef ptr @_ZN11ast_manager12mk_func_declERK6symboljPKP4sortS4_RK14func_decl_info(ptr noundef nonnull align 8 dereferenceable(976) %0, ptr noundef nonnull align 8 dereferenceable(8) %1, i32 noundef %2, ptr noundef %3, ptr noundef %4, ptr noundef nonnull align 8 dereferenceable(19) %5) #4 comdat align 2 {
  %7 = alloca ptr, align 8
  %8 = alloca ptr, align 8
  %9 = alloca ptr, align 8
  %10 = alloca i32, align 4
  %11 = alloca ptr, align 8
  %12 = alloca ptr, align 8
  %13 = alloca ptr, align 8
  store ptr %0, ptr %8, align 8, !tbaa !25
  store ptr %1, ptr %9, align 8, !tbaa !98
  store i32 %2, ptr %10, align 4, !tbaa !17
  store ptr %3, ptr %11, align 8, !tbaa !20
  store ptr %4, ptr %12, align 8, !tbaa !23
  store ptr %5, ptr %13, align 8, !tbaa !100
  %14 = load ptr, ptr %8, align 8
  %15 = load ptr, ptr %13, align 8, !tbaa !100
  %16 = call noundef zeroext i1 @_ZNK14func_decl_info7is_nullEv(ptr noundef nonnull align 8 dereferenceable(19) %15)
  br i1 %16, label %17, label %23

17:                                               ; preds = %6
  %18 = load ptr, ptr %9, align 8, !tbaa !98
  %19 = load i32, ptr %10, align 4, !tbaa !17
  %20 = load ptr, ptr %11, align 8, !tbaa !20
  %21 = load ptr, ptr %12, align 8, !tbaa !23
  %22 = call noundef ptr @_ZN11ast_manager12mk_func_declERK6symboljPKP4sortS4_P14func_decl_info(ptr noundef nonnull align 8 dereferenceable(976) %14, ptr noundef nonnull align 8 dereferenceable(8) %18, i32 noundef %19, ptr noundef %20, ptr noundef %21, ptr noundef null)
  store ptr %22, ptr %7, align 8
  br label %30

23:                                               ; preds = %6
  %24 = load ptr, ptr %9, align 8, !tbaa !98
  %25 = load i32, ptr %10, align 4, !tbaa !17
  %26 = load ptr, ptr %11, align 8, !tbaa !20
  %27 = load ptr, ptr %12, align 8, !tbaa !23
  %28 = load ptr, ptr %13, align 8, !tbaa !100
  %29 = call noundef ptr @_ZN11ast_manager12mk_func_declERK6symboljPKP4sortS4_P14func_decl_info(ptr noundef nonnull align 8 dereferenceable(976) %14, ptr noundef nonnull align 8 dereferenceable(8) %24, i32 noundef %25, ptr noundef %26, ptr noundef %27, ptr noundef %28)
  store ptr %29, ptr %7, align 8
  br label %30

30:                                               ; preds = %23, %17
  %31 = load ptr, ptr %7, align 8
  ret ptr %31
}

; Function Attrs: mustprogress nounwind uwtable
define linkonce_odr hidden noundef ptr @_ZNK11ast_manager12mk_bool_sortEv(ptr noundef nonnull align 8 dereferenceable(976) %0) #7 comdat align 2 {
  %2 = alloca ptr, align 8
  store ptr %0, ptr %2, align 8, !tbaa !25
  %3 = load ptr, ptr %2, align 8
  %4 = getelementptr inbounds nuw %class.ast_manager, ptr %3, i32 0, i32 13
  %5 = load ptr, ptr %4, align 8, !tbaa !34
  ret ptr %5
}

; Function Attrs: mustprogress uwtable
define hidden noundef ptr @_ZN7pb_util13mk_fresh_boolEv(ptr noundef nonnull align 8 dereferenceable(64) %0) #4 align 2 personality ptr @__gxx_personality_v0 {
  %2 = alloca ptr, align 8
  %3 = alloca %class.symbol, align 8
  %4 = alloca %struct.func_decl_info, align 8
  %5 = alloca ptr, align 8
  %6 = alloca i32, align 4
  store ptr %0, ptr %2, align 8, !tbaa !122
  %7 = load ptr, ptr %2, align 8
  call void @llvm.lifetime.start.p0(i64 8, ptr %3) #3
  %8 = getelementptr inbounds nuw %class.pb_util, ptr %7, i32 0, i32 0
  %9 = load ptr, ptr %8, align 8, !tbaa !140
  %10 = call ptr @_ZN11ast_manager17mk_fresh_var_nameEPKc(ptr noundef nonnull align 8 dereferenceable(976) %9, ptr noundef @.str.14)
  %11 = getelementptr inbounds nuw %class.symbol, ptr %3, i32 0, i32 0
  store ptr %10, ptr %11, align 8
  call void @llvm.lifetime.start.p0(i64 24, ptr %4) #3
  %12 = getelementptr inbounds nuw %class.pb_util, ptr %7, i32 0, i32 1
  %13 = load i32, ptr %12, align 8, !tbaa !146
  call void @_ZN14func_decl_infoC1EiijPK9parameter(ptr noundef nonnull align 8 dereferenceable(19) %4, i32 noundef %13, i32 noundef 5, i32 noundef 0, ptr noundef null)
  %14 = getelementptr inbounds nuw %class.pb_util, ptr %7, i32 0, i32 0
  %15 = load ptr, ptr %14, align 8, !tbaa !140
  %16 = getelementptr inbounds nuw %class.pb_util, ptr %7, i32 0, i32 0
  %17 = load ptr, ptr %16, align 8, !tbaa !140
  %18 = getelementptr inbounds nuw %class.pb_util, ptr %7, i32 0, i32 0
  %19 = load ptr, ptr %18, align 8, !tbaa !140
  %20 = invoke noundef ptr @_ZNK11ast_manager12mk_bool_sortEv(ptr noundef nonnull align 8 dereferenceable(976) %19)
          to label %21 unwind label %26

21:                                               ; preds = %1
  %22 = invoke noundef ptr @_ZN11ast_manager12mk_func_declERK6symboljPKP4sortS4_RK14func_decl_info(ptr noundef nonnull align 8 dereferenceable(976) %17, ptr noundef nonnull align 8 dereferenceable(8) %3, i32 noundef 0, ptr noundef null, ptr noundef %20, ptr noundef nonnull align 8 dereferenceable(19) %4)
          to label %23 unwind label %26

23:                                               ; preds = %21
  %24 = invoke noundef ptr @_ZN11ast_manager8mk_constEP9func_decl(ptr noundef nonnull align 8 dereferenceable(976) %15, ptr noundef %22)
          to label %25 unwind label %26

25:                                               ; preds = %23
  call void @_ZN9decl_infoD2Ev(ptr noundef nonnull align 8 dereferenceable(19) %4) #3
  call void @llvm.lifetime.end.p0(i64 24, ptr %4) #3
  call void @llvm.lifetime.end.p0(i64 8, ptr %3) #3
  ret ptr %24

26:                                               ; preds = %23, %21, %1
  %27 = landingpad { ptr, i32 }
          cleanup
  %28 = extractvalue { ptr, i32 } %27, 0
  store ptr %28, ptr %5, align 8
  %29 = extractvalue { ptr, i32 } %27, 1
  store i32 %29, ptr %6, align 4
  call void @_ZN9decl_infoD2Ev(ptr noundef nonnull align 8 dereferenceable(19) %4) #3
  call void @llvm.lifetime.end.p0(i64 24, ptr %4) #3
  call void @llvm.lifetime.end.p0(i64 8, ptr %3) #3
  br label %30

30:                                               ; preds = %26
  %31 = load ptr, ptr %5, align 8
  %32 = load i32, ptr %6, align 4
  %33 = insertvalue { ptr, i32 } poison, ptr %31, 0
  %34 = insertvalue { ptr, i32 } %33, i32 %32, 1
  resume { ptr, i32 } %34
}