; Function Attrs: mustprogress uwtable
define hidden noundef ptr @_ZN7pb_util13mk_fresh_boolEv(ptr noundef nonnull readonly align 8 captures(none) dereferenceable(64) %0) local_unnamed_addr #3 align 2 personality ptr @__gxx_personality_v0 {
  %2 = alloca %class.symbol, align 8
  %3 = alloca %struct.func_decl_info, align 8
  call void @llvm.lifetime.start.p0(i64 8, ptr nonnull %2) #22
  %4 = load ptr, ptr %0, align 8, !tbaa !149
  %5 = tail call ptr @_ZN11ast_manager17mk_fresh_var_nameEPKc(ptr noundef nonnull align 8 dereferenceable(976) %4, ptr noundef nonnull @.str.14)
  store ptr %5, ptr %2, align 8
  call void @llvm.lifetime.start.p0(i64 24, ptr nonnull %3) #22
  %6 = getelementptr inbounds nuw i8, ptr %0, i64 8
  %7 = load i32, ptr %6, align 8, !tbaa !153
  call void @_ZN14func_decl_infoC1EiijPK9parameter(ptr noundef nonnull align 8 dereferenceable(19) %3, i32 noundef %7, i32 noundef 5, i32 noundef 0, ptr noundef null)
  %8 = load ptr, ptr %0, align 8, !tbaa !149
  %9 = getelementptr inbounds nuw i8, ptr %8, i64 840
  %10 = load ptr, ptr %9, align 8, !tbaa !13
  %11 = load i32, ptr %3, align 8, !tbaa !87
  %12 = icmp eq i32 %11, -1
  br i1 %12, label %13, label %_ZNK14func_decl_info7is_nullEv.exit.thread.i

13:                                               ; preds = %1
  %14 = getelementptr inbounds nuw i8, ptr %3, i64 17
  %15 = load i16, ptr %14, align 1
  %16 = trunc i16 %15 to i1
  %17 = and i16 %15, 506
  %18 = icmp ne i16 %17, 0
  %or.cond.not.i = or i1 %18, %16
  br i1 %or.cond.not.i, label %_ZNK14func_decl_info7is_nullEv.exit.thread.i, label %19

_ZNK14func_decl_info7is_nullEv.exit.thread.i:     ; preds = %13, %1
  br label %19

19:                                               ; preds = %_ZNK14func_decl_info7is_nullEv.exit.thread.i, %13
  %.sink.i = phi ptr [ %3, %_ZNK14func_decl_info7is_nullEv.exit.thread.i ], [ null, %13 ]
  %20 = invoke noundef ptr @_ZN11ast_manager12mk_func_declERK6symboljPKP4sortS4_P14func_decl_info(ptr noundef nonnull align 8 dereferenceable(976) %8, ptr noundef nonnull align 8 dereferenceable(8) %2, i32 noundef 0, ptr noundef null, ptr noundef %10, ptr noundef %.sink.i)
          to label %_ZN11ast_manager12mk_func_declERK6symboljPKP4sortS4_RK14func_decl_info.exit unwind label %33

_ZN11ast_manager12mk_func_declERK6symboljPKP4sortS4_RK14func_decl_info.exit: ; preds = %19
  %21 = invoke noundef ptr @_ZN11ast_manager6mk_appEP9func_decljPKP4expr(ptr noundef nonnull align 8 dereferenceable(976) %8, ptr noundef %20, i32 noundef 0, ptr noundef null)
          to label %_ZN11ast_manager8mk_constEP9func_decl.exit unwind label %33

_ZN11ast_manager8mk_constEP9func_decl.exit:       ; preds = %_ZN11ast_manager12mk_func_declERK6symboljPKP4sortS4_RK14func_decl_info.exit
  %22 = getelementptr inbounds nuw i8, ptr %3, i64 8
  %23 = load ptr, ptr %22, align 8, !tbaa !91
  %.not.i.i.i = icmp eq ptr %23, null
  br i1 %.not.i.i.i, label %_ZN9decl_infoD2Ev.exit, label %_ZNK6vectorI9parameterLb1EjE4sizeEv.exit.i.i.i.i

_ZNK6vectorI9parameterLb1EjE4sizeEv.exit.i.i.i.i: ; preds = %_ZN11ast_manager8mk_constEP9func_decl.exit
  %24 = getelementptr inbounds i8, ptr %23, i64 -4
  %25 = load i32, ptr %24, align 4, !tbaa !86
  %.not5.i.i.i.i.i.i.i = icmp eq i32 %25, 0
  br i1 %.not5.i.i.i.i.i.i.i, label %_ZN6vectorI9parameterLb1EjE16destroy_elementsEv.exit.i.i.i, label %.lr.ph.i.i.i.i.i.i.i

.lr.ph.i.i.i.i.i.i.i:                             ; preds = %_ZNK6vectorI9parameterLb1EjE4sizeEv.exit.i.i.i.i, %.lr.ph.i.i.i.i.i.i.i
  %.07.i.i.i.i.i.i.i = phi i32 [ %27, %.lr.ph.i.i.i.i.i.i.i ], [ %25, %_ZNK6vectorI9parameterLb1EjE4sizeEv.exit.i.i.i.i ]
  %.046.i.i.i.i.i.i.i = phi ptr [ %26, %.lr.ph.i.i.i.i.i.i.i ], [ %23, %_ZNK6vectorI9parameterLb1EjE4sizeEv.exit.i.i.i.i ]
  call void @_ZN9parameterD1Ev(ptr noundef nonnull align 8 dereferenceable(16) %.046.i.i.i.i.i.i.i) #22
  %26 = getelementptr inbounds nuw i8, ptr %.046.i.i.i.i.i.i.i, i64 16
  %27 = add i32 %.07.i.i.i.i.i.i.i, -1
  %.not.i.i.i.i.i.i.i = icmp eq i32 %27, 0
  br i1 %.not.i.i.i.i.i.i.i, label %_ZN6vectorI9parameterLb1EjE16destroy_elementsEv.exit.loopexit.i.i.i, label %.lr.ph.i.i.i.i.i.i.i, !llvm.loop !92

_ZN6vectorI9parameterLb1EjE16destroy_elementsEv.exit.loopexit.i.i.i: ; preds = %.lr.ph.i.i.i.i.i.i.i
  %.pre.i.i.i = load ptr, ptr %22, align 8, !tbaa !91
  br label %_ZN6vectorI9parameterLb1EjE16destroy_elementsEv.exit.i.i.i

_ZN6vectorI9parameterLb1EjE16destroy_elementsEv.exit.i.i.i: ; preds = %_ZN6vectorI9parameterLb1EjE16destroy_elementsEv.exit.loopexit.i.i.i, %_ZNK6vectorI9parameterLb1EjE4sizeEv.exit.i.i.i.i
  %28 = phi ptr [ %.pre.i.i.i, %_ZN6vectorI9parameterLb1EjE16destroy_elementsEv.exit.loopexit.i.i.i ], [ %23, %_ZNK6vectorI9parameterLb1EjE4sizeEv.exit.i.i.i.i ]
  %29 = getelementptr inbounds i8, ptr %28, i64 -8
  invoke void @_ZN6memory10deallocateEPv(ptr noundef nonnull %29)
          to label %_ZN9decl_infoD2Ev.exit unwind label %30

30:                                               ; preds = %_ZN6vectorI9parameterLb1EjE16destroy_elementsEv.exit.i.i.i
  %31 = landingpad { ptr, i32 }
          catch ptr null
  %32 = extractvalue { ptr, i32 } %31, 0
  call void @__clang_call_terminate(ptr %32) #24
  unreachable

_ZN9decl_infoD2Ev.exit:                           ; preds = %_ZN11ast_manager8mk_constEP9func_decl.exit, %_ZN6vectorI9parameterLb1EjE16destroy_elementsEv.exit.i.i.i
  call void @llvm.lifetime.end.p0(i64 24, ptr nonnull %3) #22
  call void @llvm.lifetime.end.p0(i64 8, ptr nonnull %2) #22
  ret ptr %21

33:                                               ; preds = %_ZN11ast_manager12mk_func_declERK6symboljPKP4sortS4_RK14func_decl_info.exit, %19
  %34 = landingpad { ptr, i32 }
          cleanup
  call void @_ZN9decl_infoD2Ev(ptr noundef nonnull align 8 dereferenceable(19) %3) #22
  call void @llvm.lifetime.end.p0(i64 24, ptr nonnull %3) #22
  call void @llvm.lifetime.end.p0(i64 8, ptr nonnull %2) #22
  resume { ptr, i32 } %34
}